; Function Attrs: nounwind uwtable
define dso_local void @filter_string_list(ptr noundef captures(none) %0, i32 noundef %1, ptr noundef readonly captures(none) %2, ptr noundef %3) local_unnamed_addr #4 {
  %5 = getelementptr inbounds nuw i8, ptr %0, i64 8
  %6 = load i64, ptr %5, align 8, !tbaa !4
  %.not24 = icmp eq i64 %6, 0
  br i1 %.not24, label %._crit_edge, label %.lr.ph

.lr.ph:                                           ; preds = %4
  %7 = getelementptr inbounds nuw i8, ptr %0, i64 24
  %.not21 = icmp eq i32 %1, 0
  br i1 %.not21, label %.lr.ph.split.us, label %.lr.ph.split

.lr.ph.split.us:                                  ; preds = %.lr.ph, %24
  %indvars.iv27 = phi i64 [ %indvars.iv.next28, %24 ], [ 0, %.lr.ph ]
  %.023.us = phi i32 [ %.1.us, %24 ], [ 0, %.lr.ph ]
  %8 = load ptr, ptr %0, align 8, !tbaa !13
  %9 = getelementptr inbounds nuw %struct.string_list_item, ptr %8, i64 %indvars.iv27
  %10 = tail call i32 %2(ptr noundef %9, ptr noundef %3) #11
  %.not.us = icmp eq i32 %10, 0
  br i1 %.not.us, label %17, label %11

11:                                               ; preds = %.lr.ph.split.us
  %12 = load ptr, ptr %0, align 8, !tbaa !13
  %13 = add nsw i32 %.023.us, 1
  %14 = sext i32 %.023.us to i64
  %15 = getelementptr inbounds %struct.string_list_item, ptr %12, i64 %14
  %16 = getelementptr inbounds nuw %struct.string_list_item, ptr %12, i64 %indvars.iv27
  tail call void @llvm.memcpy.p0.p0.i64(ptr noundef nonnull align 8 dereferenceable(16) %15, ptr noundef nonnull align 8 dereferenceable(16) %16, i64 16, i1 false), !tbaa.struct !21
  br label %24

17:                                               ; preds = %.lr.ph.split.us
  %18 = load i8, ptr %7, align 8
  %19 = and i8 %18, 1
  %.not20.us = icmp eq i8 %19, 0
  br i1 %.not20.us, label %24, label %20

20:                                               ; preds = %17
  %21 = load ptr, ptr %0, align 8, !tbaa !13
  %22 = getelementptr inbounds nuw %struct.string_list_item, ptr %21, i64 %indvars.iv27
  %23 = load ptr, ptr %22, align 8, !tbaa !14
  tail call void @free(ptr noundef %23) #11
  br label %24

24:                                               ; preds = %17, %20, %11
  %.1.us = phi i32 [ %13, %11 ], [ %.023.us, %20 ], [ %.023.us, %17 ]
  %indvars.iv.next28 = add nuw nsw i64 %indvars.iv27, 1
  %25 = load i64, ptr %5, align 8, !tbaa !4
  %26 = icmp ugt i64 %25, %indvars.iv.next28
  br i1 %26, label %.lr.ph.split.us, label %._crit_edge, !llvm.loop !26

.lr.ph.split:                                     ; preds = %.lr.ph, %47
  %indvars.iv = phi i64 [ %indvars.iv.next, %47 ], [ 0, %.lr.ph ]
  %.023 = phi i32 [ %.1, %47 ], [ 0, %.lr.ph ]
  %27 = load ptr, ptr %0, align 8, !tbaa !13
  %28 = getelementptr inbounds nuw %struct.string_list_item, ptr %27, i64 %indvars.iv
  %29 = tail call i32 %2(ptr noundef %28, ptr noundef %3) #11
  %.not = icmp eq i32 %29, 0
  br i1 %.not, label %36, label %30

30:                                               ; preds = %.lr.ph.split
  %31 = load ptr, ptr %0, align 8, !tbaa !13
  %32 = add nsw i32 %.023, 1
  %33 = sext i32 %.023 to i64
  %34 = getelementptr inbounds %struct.string_list_item, ptr %31, i64 %33
  %35 = getelementptr inbounds nuw %struct.string_list_item, ptr %31, i64 %indvars.iv
  tail call void @llvm.memcpy.p0.p0.i64(ptr noundef nonnull align 8 dereferenceable(16) %34, ptr noundef nonnull align 8 dereferenceable(16) %35, i64 16, i1 false), !tbaa.struct !21
  br label %47

36:                                               ; preds = %.lr.ph.split
  %37 = load i8, ptr %7, align 8
  %38 = and i8 %37, 1
  %.not20 = icmp eq i8 %38, 0
  br i1 %.not20, label %43, label %39

39:                                               ; preds = %36
  %40 = load ptr, ptr %0, align 8, !tbaa !13
  %41 = getelementptr inbounds nuw %struct.string_list_item, ptr %40, i64 %indvars.iv
  %42 = load ptr, ptr %41, align 8, !tbaa !14
  tail call void @free(ptr noundef %42) #11
  br label %43

43:                                               ; preds = %39, %36
  %44 = load ptr, ptr %0, align 8, !tbaa !13
  %45 = getelementptr inbounds nuw %struct.string_list_item, ptr %44, i64 %indvars.iv, i32 1
  %46 = load ptr, ptr %45, align 8, !tbaa !20
  tail call void @free(ptr noundef %46) #11
  br label %47

47:                                               ; preds = %30, %43
  %.1 = phi i32 [ %32, %30 ], [ %.023, %43 ]
  %indvars.iv.next = add nuw nsw i64 %indvars.iv, 1
  %48 = load i64, ptr %5, align 8, !tbaa !4
  %49 = icmp ugt i64 %48, %indvars.iv.next
  br i1 %49, label %.lr.ph.split, label %._crit_edge, !llvm.loop !26

._crit_edge:                                      ; preds = %47, %24, %4
  %.0.lcssa = phi i32 [ 0, %4 ], [ %.1.us, %24 ], [ %.1, %47 ]
  %50 = sext i32 %.0.lcssa to i64
  store i64 %50, ptr %5, align 8, !tbaa !4
  ret void
}